; Function Attrs: nounwind uwtable
define ptr @l___private_Lean_Meta_Match_MatcherApp_Transform_0__Lean_Meta_MatcherApp_updateAlts___lambda__3(ptr noundef %0, i8 noundef zeroext %1, ptr noundef %2, ptr noundef %3, ptr noundef %4, ptr noundef %5, ptr noundef %6, ptr noundef %7, ptr noundef %8, ptr noundef %9) local_unnamed_addr #1 {
  tail call void @lean_inc_heartbeat() #4
  %11 = tail call noalias ptr @mi_malloc_small(i64 noundef 56) #4
  %12 = icmp eq ptr %11, null
  br i1 %12, label %13, label %lean_alloc_closure.exit

13:                                               ; preds = %10
  tail call void @lean_internal_panic_out_of_memory() #5
  unreachable

lean_alloc_closure.exit:                          ; preds = %10
  %14 = zext i8 %1 to i64
  %15 = shl nuw nsw i64 %14, 1
  %16 = or disjoint i64 %15, 1
  %17 = inttoptr i64 %16 to ptr
  %18 = getelementptr inbounds nuw i8, ptr %11, i64 4
  store i32 1, ptr %11, align 4, !tbaa !8
  store i32 -184549320, ptr %18, align 4
  %19 = getelementptr inbounds nuw i8, ptr %11, i64 8
  store ptr @l___private_Lean_Meta_Match_MatcherApp_Transform_0__Lean_Meta_MatcherApp_updateAlts___lambda__2___boxed, ptr %19, align 8, !tbaa !4
  %20 = getelementptr inbounds nuw i8, ptr %11, i64 16
  store i16 11, ptr %20, align 8, !tbaa !15
  %21 = getelementptr inbounds nuw i8, ptr %11, i64 18
  store i16 4, ptr %21, align 2, !tbaa !15
  %22 = getelementptr inbounds nuw i8, ptr %11, i64 24
  store ptr %4, ptr %22, align 8, !tbaa !4
  %23 = getelementptr inbounds nuw i8, ptr %11, i64 32
  store ptr %0, ptr %23, align 8, !tbaa !4
  %24 = getelementptr inbounds nuw i8, ptr %11, i64 40
  store ptr %17, ptr %24, align 8, !tbaa !4
  %25 = getelementptr inbounds nuw i8, ptr %11, i64 48
  store ptr %2, ptr %25, align 8, !tbaa !4
  %26 = load ptr, ptr @l___private_Lean_Meta_Match_MatcherApp_Transform_0__Lean_Meta_MatcherApp_updateAlts___lambda__3___closed__1, align 8, !tbaa !4
  %27 = tail call ptr @l_Lean_Meta_forallBoundedTelescope___at_Lean_Meta_arrowDomainsN___spec__6___rarg(ptr noundef %3, ptr noundef %26, ptr noundef nonnull %11, i8 noundef zeroext 0, ptr noundef %5, ptr noundef %6, ptr noundef %7, ptr noundef %8, ptr noundef %9) #4
  ret ptr %27
}